; Function Attrs: nofree norecurse nosync nounwind memory(readwrite, inaccessiblemem: none) uwtable
define void @Gia_ManInvertConstraints(ptr noundef readonly captures(none) %0) local_unnamed_addr #1 {
  %2 = getelementptr i8, ptr %0, i64 172
  %.val16 = load i32, ptr %2, align 4
  %3 = icmp eq i32 %.val16, 0
  br i1 %3, label %.critedge, label %.preheader

.preheader:                                       ; preds = %1
  %4 = getelementptr i8, ptr %0, i64 32
  %5 = getelementptr i8, ptr %0, i64 16
  %6 = getelementptr i8, ptr %0, i64 72
  %.val1418 = load i32, ptr %5, align 8
  %.val1519 = load ptr, ptr %6, align 8
  %7 = getelementptr i8, ptr %.val1519, i64 4
  %.val15.val20 = load i32, ptr %7, align 4
  %8 = sub nsw i32 %.val15.val20, %.val1418
  %9 = icmp sgt i32 %8, 0
  br i1 %9, label %.lr.ph, label %.critedge

.lr.ph:                                           ; preds = %.preheader, %22
  %.val1527 = phi ptr [ %.val15, %22 ], [ %.val1519, %.preheader ]
  %.val1425 = phi i32 [ %.val14, %22 ], [ %.val1418, %.preheader ]
  %indvars.iv = phi i64 [ %indvars.iv.next, %22 ], [ 0, %.preheader ]
  %10 = phi i32 [ %24, %22 ], [ %8, %.preheader ]
  %.val = load ptr, ptr %4, align 8
  %11 = getelementptr i8, ptr %.val1527, i64 8
  %.val11.val = load ptr, ptr %11, align 8
  %12 = getelementptr inbounds nuw i32, ptr %.val11.val, i64 %indvars.iv
  %13 = load i32, ptr %12, align 4
  %14 = sext i32 %13 to i64
  %15 = getelementptr inbounds %struct.Gia_Obj_t_, ptr %.val, i64 %14
  %.not = icmp eq ptr %.val, null
  br i1 %.not, label %.critedge, label %16

16:                                               ; preds = %.lr.ph
  %.val17 = load i32, ptr %2, align 4
  %17 = sub nsw i32 %10, %.val17
  %18 = sext i32 %17 to i64
  %.not10 = icmp slt i64 %indvars.iv, %18
  br i1 %.not10, label %22, label %19

19:                                               ; preds = %16
  %20 = load i64, ptr %15, align 4
  %21 = xor i64 %20, 536870912
  store i64 %21, ptr %15, align 4
  %.val14.pre = load i32, ptr %5, align 8
  %.val15.pre = load ptr, ptr %6, align 8
  br label %22

22:                                               ; preds = %16, %19
  %.val15 = phi ptr [ %.val1527, %16 ], [ %.val15.pre, %19 ]
  %.val14 = phi i32 [ %.val1425, %16 ], [ %.val14.pre, %19 ]
  %indvars.iv.next = add nuw nsw i64 %indvars.iv, 1
  %23 = getelementptr i8, ptr %.val15, i64 4
  %.val15.val = load i32, ptr %23, align 4
  %24 = sub nsw i32 %.val15.val, %.val14
  %25 = sext i32 %24 to i64
  %26 = icmp slt i64 %indvars.iv.next, %25
  br i1 %26, label %.lr.ph, label %.critedge, !llvm.loop !61

.critedge:                                        ; preds = %.lr.ph, %22, %.preheader, %1
  ret void
}